; Function Attrs: nounwind sspstrong uwtable
define internal range(i64 1, 0) i64 @dir_fileno(i64 noundef %0) #0 {
  %2 = icmp eq i64 %0, 0
  %3 = and i64 %0, 7
  %4 = icmp ne i64 %3, 0
  %5 = or i1 %2, %4
  br i1 %5, label %RB_OBJ_FROZEN.exit.thread.i.i.i, label %RB_FL_ABLE.exit.i.i.i.i, !prof !60

RB_FL_ABLE.exit.i.i.i.i:                          ; preds = %1
  %6 = inttoptr i64 %0 to ptr
  %7 = load i64, ptr %6, align 8, !tbaa !61
  %8 = and i64 %7, 31
  %.not.i.i.i.i = icmp eq i64 %8, 27
  %9 = and i64 %7, 2048
  %10 = icmp ne i64 %9, 0
  %or.cond.i.i.i = or i1 %.not.i.i.i.i, %10
  br i1 %or.cond.i.i.i, label %RB_OBJ_FROZEN.exit.thread.i.i.i, label %rbimpl_RB_TYPE_P_fastpath.exit.i.i.i, !prof !62

RB_OBJ_FROZEN.exit.thread.i.i.i:                  ; preds = %RB_FL_ABLE.exit.i.i.i.i, %1
  tail call void @rb_error_frozen_object(i64 noundef %0) #26
  unreachable

rbimpl_RB_TYPE_P_fastpath.exit.i.i.i:             ; preds = %RB_FL_ABLE.exit.i.i.i.i
  %11 = icmp ne i64 %8, 5
  %12 = and i64 %7, 49152
  %.not.i.i.i = icmp eq i64 %12, 0
  %or.cond8.i.i.i = or i1 %11, %.not.i.i.i
  br i1 %or.cond8.i.i.i, label %dir_get.exit.i, label %13, !prof !63

13:                                               ; preds = %rbimpl_RB_TYPE_P_fastpath.exit.i.i.i
  tail call void @rb_str_modify(i64 noundef %0) #22
  br label %dir_get.exit.i

dir_get.exit.i:                                   ; preds = %13, %rbimpl_RB_TYPE_P_fastpath.exit.i.i.i
  %14 = tail call ptr @rb_check_typeddata(i64 noundef %0, ptr noundef nonnull @dir_data_type) #22
  %15 = load ptr, ptr %14, align 8, !tbaa !54
  %.not.i = icmp eq ptr %15, null
  br i1 %.not.i, label %16, label %dir_check.exit

16:                                               ; preds = %dir_get.exit.i
  tail call fastcc void @dir_closed() #27
  unreachable

dir_check.exit:                                   ; preds = %dir_get.exit.i
  %17 = tail call i32 @dirfd(ptr noundef nonnull %15) #22
  %18 = icmp eq i32 %17, -1
  br i1 %18, label %19, label %22

19:                                               ; preds = %dir_check.exit
  %20 = tail call ptr @rb_errno_ptr() #22
  %21 = load i32, ptr %20, align 4, !tbaa !58
  tail call void @rb_syserr_fail(i32 noundef %21, ptr noundef nonnull @.str.57) #26
  unreachable

22:                                               ; preds = %dir_check.exit
  %23 = sext i32 %17 to i64
  %24 = shl nsw i64 %23, 1
  %25 = or disjoint i64 %24, 1
  ret i64 %25
}